((lp0
VFree
p1
aVRip
p2
aVDamn
p3
aVmiss
p4
aVwas
p5
aVTo
p6
aVRIP
p7
aVthis
p8
aVman
p9
aVrip
p10
aVbro
p11
aVRest
p12
aVWas
p13
aVThis
p14
aVUp
p15
aVShit
p16
aVMiss
p17
aVso
p18
aVgang
p19
aVhe
p20
a(lp21
VNiggas
p22
aVniggas
p23
aVFuck
p24
aVdey
p25
aVda
p26
aVOn
p27
aVnigga
p28
aVout
p29
aVwit
p30
aVBitch
p31
aVAint
p32
aVWe
p33
aVGot
p34
aVthey
p35
aVThat
p36
aVfuck
p37
aVno
p38
aVGet
p39
ag15
aVyo
p40
a(lp41
Vme
p42
aVbe
p43
aVit
p44
aVdont
p45
aVget
p46
aVthat
p47
aVlike
p48
aVfor
p49
aVof
p50
aVMe
p51
aVlove
p52
aVbitch
p53
aVbut
p54
ag38
ag35
aVwith
p55
aVis
p56
aVjust
p57
aVThe
p58
ag18
atp59
.